target datalayout = "e-m:e-p270:32:32-p271:32:32-p272:64:64-i64:64-i128:128-f80:128-n8:16:32:64-S128"
target triple = "x86_64-pc-linux-gnu"

@.str.4 = private unnamed_addr constant [4 x i8] c"gdb\00", align 1
@.str.13 = private unnamed_addr constant [3 x i8] c"-q\00", align 1
@.str.14 = private unnamed_addr constant [3 x i8] c"-x\00", align 1

; Function Attrs: mustprogress uwtable
define internal void @_ZN5boost5debug12_GLOBAL__N_120start_gdb_in_consoleERKNS0_16dbg_startup_infoE(ptr noundef nonnull align 8 dereferenceable(64) %0) #1 {
  %2 = alloca ptr, align 8
  %3 = alloca ptr, align 8
  %4 = alloca i32, align 4
  store ptr %0, ptr %2, align 8, !tbaa !3
  call void @llvm.lifetime.start.p0(i64 8, ptr %3) #3
  %5 = load ptr, ptr %2, align 8, !tbaa !3
  %6 = call noundef ptr @_ZN5boost5debug12_GLOBAL__N_121prepare_gdb_cmnd_fileERKNS0_16dbg_startup_infoE(ptr noundef nonnull align 8 dereferenceable(64) %5)
  store ptr %6, ptr %3, align 8, !tbaa !3
  %7 = load ptr, ptr %3, align 8, !tbaa !3
  %8 = icmp ne ptr %7, null
  br i1 %8, label %10, label %9

9:                                                ; preds = %1
  store i32 1, ptr %4, align 4
  br label %13

10:                                               ; preds = %1
  %11 = load ptr, ptr %3, align 8, !tbaa !3
  %12 = call noundef zeroext i1 (ptr, ...) @_ZN5boost5debug12_GLOBAL__N_111safe_execlpEPKcz(ptr noundef @.str.4, ptr noundef @.str.13, ptr noundef @.str.14, ptr noundef %11, i32 noundef 0)
  store i32 0, ptr %4, align 4
  br label %13

13:                                               ; preds = %10, %9
  call void @llvm.lifetime.end.p0(i64 8, ptr %3) #3
  %14 = load i32, ptr %4, align 4
  switch i32 %14, label %16 [
    i32 0, label %15
    i32 1, label %15
  ]

15:                                               ; preds = %13, %13
  ret void

16:                                               ; preds = %13
  unreachable
}