; Function Attrs: mustprogress uwtable
define internal void @_ZN5boost5debug12_GLOBAL__N_120start_gdb_in_consoleERKNS0_16dbg_startup_infoE(ptr nocapture noundef nonnull readonly align 8 dereferenceable(64) %0) #2 {
  %2 = tail call fastcc noundef ptr @_ZN5boost5debug12_GLOBAL__N_121prepare_gdb_cmnd_fileERKNS0_16dbg_startup_infoE(ptr noundef nonnull align 8 dereferenceable(64) %0)
  %.not = icmp eq ptr %2, null
  br i1 %.not, label %4, label %3

3:                                                ; preds = %1
  tail call void (ptr, ...) @_ZN5boost5debug12_GLOBAL__N_111safe_execlpEPKcz(ptr noundef nonnull @.str.4, ptr noundef nonnull @.str.13, ptr noundef nonnull @.str.14, ptr noundef nonnull %2, i32 noundef 0)
  br label %4

4:                                                ; preds = %1, %3
  ret void
}